target datalayout = "e-m:e-p270:32:32-p271:32:32-p272:64:64-i64:64-i128:128-f80:128-n8:16:32:64-S128"
target triple = "x86_64-unknown-linux-gnu"

%struct.nodemask_t = type { [1 x i64] }
%struct.list_head = type { ptr, ptr }

@node_data = external dso_local local_unnamed_addr global [0 x ptr], align 8
@node_states = external dso_local local_unnamed_addr global [6 x %struct.nodemask_t], align 16

; Function Attrs: fn_ret_thunk_extern nofree nounwind null_pointer_is_valid memory(read)
define dso_local ptr @first_online_pgdat() local_unnamed_addr #0 align 16 {
  %1 = load i64, ptr getelementptr inbounds ([6 x %struct.nodemask_t], ptr @node_states, i64 0, i64 1), align 8
  %2 = icmp eq i64 %1, 0
  br i1 %2, label %6, label %3

3:                                                ; preds = %0
  %4 = tail call i64 asm "rep; bsf $1,$0", "=r,rm,~{dirflag},~{fpsr},~{flags}"(i64 %1) #6, !srcloc !5
  %5 = trunc i64 %4 to i32
  br label %6

6:                                                ; preds = %3, %0
  %7 = phi i32 [ %5, %3 ], [ 64, %0 ]
  %8 = tail call i32 @llvm.umin.i32(i32 %7, i32 64)
  %9 = zext nneg i32 %8 to i64
  %10 = getelementptr [0 x ptr], ptr @node_data, i64 0, i64 %9
  %11 = load ptr, ptr %10, align 8
  ret ptr %11
}

; Function Attrs: fn_ret_thunk_extern nofree nounwind null_pointer_is_valid memory(read)
define dso_local ptr @next_online_pgdat(ptr nocapture noundef readonly %0) local_unnamed_addr #0 align 16 {
  %2 = getelementptr inbounds i8, ptr %0, i64 13120
  %3 = load i32, ptr %2, align 64
  %4 = add i32 %3, 1
  %5 = icmp ugt i32 %4, 63
  br i1 %5, label %14, label %6, !prof !6

6:                                                ; preds = %1
  %7 = load i64, ptr getelementptr inbounds ([6 x %struct.nodemask_t], ptr @node_states, i64 0, i64 1), align 8
  %8 = zext nneg i32 %4 to i64
  %9 = shl nsw i64 -1, %8
  %10 = and i64 %7, %9
  %11 = icmp eq i64 %10, 0
  br i1 %11, label %14, label %12

12:                                               ; preds = %6
  %13 = tail call i64 asm "rep; bsf $1,$0", "=r,rm,~{dirflag},~{fpsr},~{flags}"(i64 %10) #6, !srcloc !5
  br label %14

14:                                               ; preds = %12, %6, %1
  %15 = phi i64 [ 64, %1 ], [ %13, %12 ], [ 64, %6 ]
  %16 = and i64 %15, 4294967232
  %17 = icmp eq i64 %16, 0
  br i1 %17, label %18, label %22

18:                                               ; preds = %14
  %19 = and i64 %15, 63
  %20 = getelementptr [0 x ptr], ptr @node_data, i64 0, i64 %19
  %21 = load ptr, ptr %20, align 8
  br label %22

22:                                               ; preds = %18, %14
  %23 = phi ptr [ %21, %18 ], [ null, %14 ]
  ret ptr %23
}

; Function Attrs: fn_ret_thunk_extern nofree nounwind null_pointer_is_valid memory(read)
define dso_local ptr @next_zone(ptr noundef readonly %0) local_unnamed_addr #0 align 16 {
  %2 = getelementptr inbounds i8, ptr %0, i64 88
  %3 = load ptr, ptr %2, align 8
  %4 = getelementptr i8, ptr %3, i64 3648
  %5 = icmp ugt ptr %4, %0
  br i1 %5, label %6, label %8

6:                                                ; preds = %1
  %7 = getelementptr i8, ptr %0, i64 1216
  br label %29

8:                                                ; preds = %1
  %9 = getelementptr inbounds i8, ptr %3, i64 13120
  %10 = load i32, ptr %9, align 64
  %11 = add i32 %10, 1
  %12 = icmp ugt i32 %11, 63
  br i1 %12, label %21, label %13, !prof !6

13:                                               ; preds = %8
  %14 = load i64, ptr getelementptr inbounds ([6 x %struct.nodemask_t], ptr @node_states, i64 0, i64 1), align 8
  %15 = zext nneg i32 %11 to i64
  %16 = shl nsw i64 -1, %15
  %17 = and i64 %14, %16
  %18 = icmp eq i64 %17, 0
  br i1 %18, label %21, label %19

19:                                               ; preds = %13
  %20 = tail call i64 asm "rep; bsf $1,$0", "=r,rm,~{dirflag},~{fpsr},~{flags}"(i64 %17) #6, !srcloc !5
  br label %21

21:                                               ; preds = %19, %13, %8
  %22 = phi i64 [ 64, %8 ], [ %20, %19 ], [ 64, %13 ]
  %23 = and i64 %22, 4294967232
  %24 = icmp eq i64 %23, 0
  br i1 %24, label %25, label %29

25:                                               ; preds = %21
  %26 = and i64 %22, 63
  %27 = getelementptr [0 x ptr], ptr @node_data, i64 0, i64 %26
  %28 = load ptr, ptr %27, align 8
  br label %29

29:                                               ; preds = %25, %21, %6
  %30 = phi ptr [ %7, %6 ], [ %28, %25 ], [ null, %21 ]
  ret ptr %30
}

; Function Attrs: fn_ret_thunk_extern nounwind null_pointer_is_valid
define dso_local ptr @__next_zones_zonelist(ptr noundef readonly %0, i32 noundef %1, ptr noundef %2) local_unnamed_addr #1 align 16 {
  %4 = icmp eq ptr %2, null
  br i1 %4, label %5, label %11, !prof !6

5:                                                ; preds = %5, %3
  %6 = phi ptr [ %10, %5 ], [ %0, %3 ]
  %7 = getelementptr inbounds i8, ptr %6, i64 8
  %8 = load i32, ptr %7, align 8
  %9 = icmp ugt i32 %8, %1
  %10 = getelementptr i8, ptr %6, i64 16
  br i1 %9, label %5, label %28, !llvm.loop !7

11:                                               ; preds = %26, %3
  %12 = phi ptr [ %27, %26 ], [ %0, %3 ]
  %13 = getelementptr inbounds i8, ptr %12, i64 8
  %14 = load i32, ptr %13, align 8
  %15 = icmp ugt i32 %14, %1
  br i1 %15, label %26, label %16

16:                                               ; preds = %11
  %17 = load ptr, ptr %12, align 8
  %18 = icmp eq ptr %17, null
  br i1 %18, label %28, label %19

19:                                               ; preds = %16
  %20 = getelementptr inbounds i8, ptr %17, i64 80
  %21 = load i32, ptr %20, align 16
  %22 = sext i32 %21 to i64
  %23 = tail call i8 asm sideeffect " btq  $2,$1\0A\09/* output condition code c*/\0A", "={@ccc},*m,Ir,~{memory},~{dirflag},~{fpsr},~{flags}"(ptr nonnull elementtype(i64) %2, i64 %22) #7, !srcloc !10
  %24 = icmp ult i8 %23, 2
  tail call void @llvm.assume(i1 %24)
  %25 = icmp eq i8 %23, 0
  br i1 %25, label %26, label %28

26:                                               ; preds = %19, %11
  %27 = getelementptr i8, ptr %12, i64 16
  br label %11, !llvm.loop !11

28:                                               ; preds = %19, %16, %5
  %29 = phi ptr [ %6, %5 ], [ %12, %16 ], [ %12, %19 ]
  ret ptr %29
}

; Function Attrs: fn_ret_thunk_extern nofree norecurse nounwind null_pointer_is_valid
define dso_local void @lruvec_init(ptr noundef %0) local_unnamed_addr #2 align 16 {
  tail call void @llvm.memset.p0.i64(ptr noundef align 8 dereferenceable(136) %0, i8 0, i64 136, i1 false)
  br label %2

2:                                                ; preds = %2, %1
  %3 = phi i64 [ 0, %1 ], [ %6, %2 ]
  %4 = getelementptr [5 x %struct.list_head], ptr %0, i64 0, i64 %3
  store volatile ptr %4, ptr %4, align 8
  %5 = getelementptr inbounds i8, ptr %4, i64 8
  store volatile ptr %4, ptr %5, align 8
  %6 = add nuw nsw i64 %3, 1
  %7 = icmp eq i64 %6, 5
  br i1 %7, label %8, label %2, !llvm.loop !12

8:                                                ; preds = %2
  %9 = getelementptr i8, ptr %0, i64 64
  %10 = getelementptr i8, ptr %0, i64 72
  %11 = load ptr, ptr %10, align 8
  %12 = load ptr, ptr %9, align 8
  %13 = getelementptr inbounds i8, ptr %12, i64 8
  store ptr %11, ptr %13, align 8
  store volatile ptr %12, ptr %11, align 8
  store ptr inttoptr (i64 -2401263026318606080 to ptr), ptr %9, align 8
  store ptr inttoptr (i64 -2401263026318606046 to ptr), ptr %10, align 8
  ret void
}

; Function Attrs: nocallback nofree nounwind willreturn memory(argmem: write)
declare void @llvm.memset.p0.i64(ptr nocapture writeonly, i8, i64, i1 immarg) #3

; Function Attrs: nocallback nofree nosync nounwind willreturn memory(inaccessiblemem: write)
declare void @llvm.assume(i1 noundef) #4

; Function Attrs: nocallback nofree nosync nounwind speculatable willreturn memory(none)
declare i32 @llvm.umin.i32(i32, i32) #5


!llvm.module.flags = !{!0, !1, !2, !3, !4}

!0 = !{i32 1, !"wchar_size", i32 2}
!1 = !{i32 8, !"cf-protection-branch", i32 1}
!2 = !{i32 4, !"function_return_thunk_extern", i32 1}
!3 = !{i32 4, !"indirect_branch_cs_prefix", i32 1}
!4 = !{i32 4, !"SkipRaxSetup", i32 1}
!5 = !{i64 1002621}
!6 = !{!"branch_weights", i32 1, i32 2000}
!7 = distinct !{!7, !8, !9}
!8 = !{!"llvm.loop.mustprogress"}
!9 = !{!"llvm.loop.unroll.disable"}
!10 = !{i64 2148504928, i64 2148505002}
!11 = distinct !{!11, !8, !9}
!12 = distinct !{!12, !8, !9}
